target datalayout = "e-m:e-p270:32:32-p271:32:32-p272:64:64-i64:64-i128:128-f80:128-n8:16:32:64-S128"
target triple = "x86_64-pc-linux-gnu"

%struct.Bdc_Par_t_ = type { i32, i32, i32 }
%struct.Nwk_Man_t_ = type { ptr, ptr, ptr, ptr, ptr, [5 x i32], i32, ptr, ptr, ptr, ptr, ptr, i32, i32, i32, i32, i32 }
%struct.Nwk_Obj_t_ = type { ptr, ptr, ptr, %union.anon, i32, i32, i32, i32, float, float, float, i32, i32, i32, ptr }
%union.anon = type { ptr }
%struct.Vec_Int_t_ = type { i32, i32, ptr }
%struct.Vec_Ptr_t_ = type { i32, i32, ptr }
%struct.timespec = type { i64, i64 }

@.str = private unnamed_addr constant [79 x i8] c"Resynthesis is not performed for networks whose nodes are less than 2 inputs.\0A\00", align 1
@.str.1 = private unnamed_addr constant [66 x i8] c"Resynthesis is not performed for nodes with more than 15 inputs.\0A\00", align 1
@.str.2 = private unnamed_addr constant [32 x i8] c"Total gain in AIG nodes = %d.  \00", align 1
@.str.3 = private unnamed_addr constant [5 x i8] c"%s =\00", align 1
@.str.4 = private unnamed_addr constant [14 x i8] c"Total runtime\00", align 1
@.str.5 = private unnamed_addr constant [11 x i8] c"%9.2f sec\0A\00", align 1

; Function Attrs: inlinehint nounwind uwtable
define internal void @Vec_IntFree(ptr noundef %0) #3 {
  %2 = alloca ptr, align 8
  store ptr %0, ptr %2, align 8, !tbaa !14
  %3 = load ptr, ptr %2, align 8, !tbaa !14
  %4 = getelementptr inbounds nuw %struct.Vec_Int_t_, ptr %3, i32 0, i32 2
  %5 = load ptr, ptr %4, align 8, !tbaa !60
  %6 = icmp ne ptr %5, null
  br i1 %6, label %7, label %13

7:                                                ; preds = %1
  %8 = load ptr, ptr %2, align 8, !tbaa !14
  %9 = getelementptr inbounds nuw %struct.Vec_Int_t_, ptr %8, i32 0, i32 2
  %10 = load ptr, ptr %9, align 8, !tbaa !60
  call void @free(ptr noundef %10) #9
  %11 = load ptr, ptr %2, align 8, !tbaa !14
  %12 = getelementptr inbounds nuw %struct.Vec_Int_t_, ptr %11, i32 0, i32 2
  store ptr null, ptr %12, align 8, !tbaa !60
  br label %14

13:                                               ; preds = %1
  br label %14

14:                                               ; preds = %13, %7
  %15 = load ptr, ptr %2, align 8, !tbaa !14
  %16 = icmp ne ptr %15, null
  br i1 %16, label %17, label %19

17:                                               ; preds = %14
  %18 = load ptr, ptr %2, align 8, !tbaa !14
  call void @free(ptr noundef %18) #9
  store ptr null, ptr %2, align 8, !tbaa !14
  br label %20

19:                                               ; preds = %14
  br label %20

20:                                               ; preds = %19, %17
  ret void
}

; Function Attrs: inlinehint nounwind uwtable
define internal i32 @Nwk_ObjFaninNum(ptr noundef %0) #3 {
  %2 = alloca ptr, align 8
  store ptr %0, ptr %2, align 8, !tbaa !50
  %3 = load ptr, ptr %2, align 8, !tbaa !50
  %4 = getelementptr inbounds nuw %struct.Nwk_Obj_t_, ptr %3, i32 0, i32 11
  %5 = load i32, ptr %4, align 4, !tbaa !66
  ret i32 %5
}

; Function Attrs: inlinehint nounwind uwtable
define internal i32 @Nwk_ObjIsNode(ptr noundef %0) #3 {
  %2 = alloca ptr, align 8
  store ptr %0, ptr %2, align 8, !tbaa !50
  %3 = load ptr, ptr %2, align 8, !tbaa !50
  %4 = getelementptr inbounds nuw %struct.Nwk_Obj_t_, ptr %3, i32 0, i32 4
  %5 = load i32, ptr %4, align 8
  %6 = and i32 %5, 7
  %7 = icmp eq i32 %6, 3
  %8 = zext i1 %7 to i32
  ret i32 %8
}

; Function Attrs: inlinehint nounwind uwtable
define internal ptr @Vec_PtrEntry(ptr noundef %0, i32 noundef %1) #3 {
  %3 = alloca ptr, align 8
  %4 = alloca i32, align 4
  store ptr %0, ptr %3, align 8, !tbaa !61
  store i32 %1, ptr %4, align 4, !tbaa !12
  %5 = load ptr, ptr %3, align 8, !tbaa !61
  %6 = getelementptr inbounds nuw %struct.Vec_Ptr_t_, ptr %5, i32 0, i32 2
  %7 = load ptr, ptr %6, align 8, !tbaa !64
  %8 = load i32, ptr %4, align 4, !tbaa !12
  %9 = sext i32 %8 to i64
  %10 = getelementptr inbounds ptr, ptr %7, i64 %9
  %11 = load ptr, ptr %10, align 8, !tbaa !65
  ret ptr %11
}

; Function Attrs: inlinehint nounwind uwtable
define internal i32 @Vec_PtrSize(ptr noundef %0) #3 {
  %2 = alloca ptr, align 8
  store ptr %0, ptr %2, align 8, !tbaa !61
  %3 = load ptr, ptr %2, align 8, !tbaa !61
  %4 = getelementptr inbounds nuw %struct.Vec_Ptr_t_, ptr %3, i32 0, i32 1
  %5 = load i32, ptr %4, align 4, !tbaa !62
  ret i32 %5
}

; Function Attrs: inlinehint nounwind uwtable
define internal ptr @Vec_IntAlloc(i32 noundef %0) #3 {
  %2 = alloca i32, align 4
  %3 = alloca ptr, align 8
  store i32 %0, ptr %2, align 4, !tbaa !12
  call void @llvm.lifetime.start.p0(i64 8, ptr %3) #9
  %4 = call noalias ptr @malloc(i64 noundef 16) #10
  store ptr %4, ptr %3, align 8, !tbaa !14
  %5 = load i32, ptr %2, align 4, !tbaa !12
  %6 = icmp sgt i32 %5, 0
  br i1 %6, label %7, label %11

7:                                                ; preds = %1
  %8 = load i32, ptr %2, align 4, !tbaa !12
  %9 = icmp slt i32 %8, 16
  br i1 %9, label %10, label %11

10:                                               ; preds = %7
  store i32 16, ptr %2, align 4, !tbaa !12
  br label %11

11:                                               ; preds = %10, %7, %1
  %12 = load ptr, ptr %3, align 8, !tbaa !14
  %13 = getelementptr inbounds nuw %struct.Vec_Int_t_, ptr %12, i32 0, i32 1
  store i32 0, ptr %13, align 4, !tbaa !57
  %14 = load i32, ptr %2, align 4, !tbaa !12
  %15 = load ptr, ptr %3, align 8, !tbaa !14
  %16 = getelementptr inbounds nuw %struct.Vec_Int_t_, ptr %15, i32 0, i32 0
  store i32 %14, ptr %16, align 8, !tbaa !59
  %17 = load ptr, ptr %3, align 8, !tbaa !14
  %18 = getelementptr inbounds nuw %struct.Vec_Int_t_, ptr %17, i32 0, i32 0
  %19 = load i32, ptr %18, align 8, !tbaa !59
  %20 = icmp ne i32 %19, 0
  br i1 %20, label %21, label %28

21:                                               ; preds = %11
  %22 = load ptr, ptr %3, align 8, !tbaa !14
  %23 = getelementptr inbounds nuw %struct.Vec_Int_t_, ptr %22, i32 0, i32 0
  %24 = load i32, ptr %23, align 8, !tbaa !59
  %25 = sext i32 %24 to i64
  %26 = mul i64 4, %25
  %27 = call noalias ptr @malloc(i64 noundef %26) #10
  br label %29

28:                                               ; preds = %11
  br label %29

29:                                               ; preds = %28, %21
  %30 = phi ptr [ %27, %21 ], [ null, %28 ]
  %31 = load ptr, ptr %3, align 8, !tbaa !14
  %32 = getelementptr inbounds nuw %struct.Vec_Int_t_, ptr %31, i32 0, i32 2
  store ptr %30, ptr %32, align 8, !tbaa !60
  %33 = load ptr, ptr %3, align 8, !tbaa !14
  call void @llvm.lifetime.end.p0(i64 8, ptr %3) #9
  ret ptr %33
}

; Function Attrs: inlinehint nounwind uwtable
define internal i64 @Abc_Clock() #3 {
  %1 = alloca i64, align 8
  %2 = alloca %struct.timespec, align 8
  %3 = alloca i32, align 4
  %4 = alloca i64, align 8
  call void @llvm.lifetime.start.p0(i64 16, ptr %2) #9
  %5 = call i32 @clock_gettime(i32 noundef 1, ptr noundef %2) #9
  %6 = icmp slt i32 %5, 0
  br i1 %6, label %7, label %8

7:                                                ; preds = %0
  store i64 -1, ptr %1, align 8
  store i32 1, ptr %3, align 4
  br label %19

8:                                                ; preds = %0
  call void @llvm.lifetime.start.p0(i64 8, ptr %4) #9
  %9 = getelementptr inbounds nuw %struct.timespec, ptr %2, i32 0, i32 0
  %10 = load i64, ptr %9, align 8, !tbaa !70
  %11 = mul nsw i64 %10, 1000000
  store i64 %11, ptr %4, align 8, !tbaa !40
  %12 = getelementptr inbounds nuw %struct.timespec, ptr %2, i32 0, i32 1
  %13 = load i64, ptr %12, align 8, !tbaa !72
  %14 = mul nsw i64 %13, 1000000
  %15 = sdiv i64 %14, 1000000000
  %16 = load i64, ptr %4, align 8, !tbaa !40
  %17 = add nsw i64 %16, %15
  store i64 %17, ptr %4, align 8, !tbaa !40
  %18 = load i64, ptr %4, align 8, !tbaa !40
  store i64 %18, ptr %1, align 8
  store i32 1, ptr %3, align 4
  call void @llvm.lifetime.end.p0(i64 8, ptr %4) #9
  br label %19

19:                                               ; preds = %8, %7
  call void @llvm.lifetime.end.p0(i64 16, ptr %2) #9
  %20 = load i64, ptr %1, align 8
  ret i64 %20
}

; Function Attrs: nounwind uwtable
define void @Nwk_ManBidecResyn(ptr noundef %0, i32 noundef %1) #0 {
  %3 = alloca ptr, align 8
  %4 = alloca i32, align 4
  %5 = alloca %struct.Bdc_Par_t_, align 4
  %6 = alloca ptr, align 8
  %7 = alloca ptr, align 8
  %8 = alloca ptr, align 8
  %9 = alloca ptr, align 8
  %10 = alloca i32, align 4
  %11 = alloca i32, align 4
  %12 = alloca i32, align 4
  %13 = alloca i32, align 4
  %14 = alloca i64, align 8
  %15 = alloca i32, align 4
  store ptr %0, ptr %3, align 8, !tbaa !36
  store i32 %1, ptr %4, align 4, !tbaa !12
  call void @llvm.lifetime.start.p0(i64 12, ptr %5) #9
  call void @llvm.memset.p0.i64(ptr align 4 %5, i8 0, i64 12, i1 false)
  call void @llvm.lifetime.start.p0(i64 8, ptr %6) #9
  store ptr %5, ptr %6, align 8, !tbaa !38
  call void @llvm.lifetime.start.p0(i64 8, ptr %7) #9
  call void @llvm.lifetime.start.p0(i64 8, ptr %8) #9
  call void @llvm.lifetime.start.p0(i64 8, ptr %9) #9
  call void @llvm.lifetime.start.p0(i64 4, ptr %10) #9
  call void @llvm.lifetime.start.p0(i64 4, ptr %11) #9
  store i32 0, ptr %11, align 4, !tbaa !12
  call void @llvm.lifetime.start.p0(i64 4, ptr %12) #9
  call void @llvm.lifetime.start.p0(i64 4, ptr %13) #9
  call void @llvm.lifetime.start.p0(i64 8, ptr %14) #9
  %16 = call i64 @Abc_Clock()
  store i64 %16, ptr %14, align 8, !tbaa !40
  %17 = load ptr, ptr %3, align 8, !tbaa !36
  %18 = call i32 @Nwk_ManGetFaninMax(ptr noundef %17)
  %19 = load ptr, ptr %6, align 8, !tbaa !38
  %20 = getelementptr inbounds nuw %struct.Bdc_Par_t_, ptr %19, i32 0, i32 0
  store i32 %18, ptr %20, align 4, !tbaa !41
  %21 = load i32, ptr %4, align 4, !tbaa !12
  %22 = load ptr, ptr %6, align 8, !tbaa !38
  %23 = getelementptr inbounds nuw %struct.Bdc_Par_t_, ptr %22, i32 0, i32 1
  store i32 %21, ptr %23, align 4, !tbaa !43
  %24 = load ptr, ptr %6, align 8, !tbaa !38
  %25 = getelementptr inbounds nuw %struct.Bdc_Par_t_, ptr %24, i32 0, i32 0
  %26 = load i32, ptr %25, align 4, !tbaa !41
  %27 = icmp slt i32 %26, 2
  br i1 %27, label %28, label %30

28:                                               ; preds = %2
  %29 = call i32 (ptr, ...) @printf(ptr noundef @.str)
  store i32 1, ptr %15, align 4
  br label %121

30:                                               ; preds = %2
  %31 = load ptr, ptr %6, align 8, !tbaa !38
  %32 = getelementptr inbounds nuw %struct.Bdc_Par_t_, ptr %31, i32 0, i32 0
  %33 = load i32, ptr %32, align 4, !tbaa !41
  %34 = icmp sgt i32 %33, 15
  br i1 %34, label %35, label %43

35:                                               ; preds = %30
  %36 = load i32, ptr %4, align 4, !tbaa !12
  %37 = icmp ne i32 %36, 0
  br i1 %37, label %38, label %40

38:                                               ; preds = %35
  %39 = call i32 (ptr, ...) @printf(ptr noundef @.str.1)
  br label %40

40:                                               ; preds = %38, %35
  %41 = load ptr, ptr %6, align 8, !tbaa !38
  %42 = getelementptr inbounds nuw %struct.Bdc_Par_t_, ptr %41, i32 0, i32 0
  store i32 15, ptr %42, align 4, !tbaa !41
  br label %43

43:                                               ; preds = %40, %30
  %44 = call ptr @Vec_IntAlloc(i32 noundef 0)
  store ptr %44, ptr %9, align 8, !tbaa !14
  %45 = load ptr, ptr %6, align 8, !tbaa !38
  %46 = call ptr @Bdc_ManAlloc(ptr noundef %45)
  store ptr %46, ptr %7, align 8, !tbaa !3
  store i32 0, ptr %10, align 4, !tbaa !12
  br label %47

47:                                               ; preds = %103, %43
  %48 = load i32, ptr %10, align 4, !tbaa !12
  %49 = load ptr, ptr %3, align 8, !tbaa !36
  %50 = getelementptr inbounds nuw %struct.Nwk_Man_t_, ptr %49, i32 0, i32 4
  %51 = load ptr, ptr %50, align 8, !tbaa !44
  %52 = call i32 @Vec_PtrSize(ptr noundef %51)
  %53 = icmp slt i32 %48, %52
  br i1 %53, label %54, label %60

54:                                               ; preds = %47
  %55 = load ptr, ptr %3, align 8, !tbaa !36
  %56 = getelementptr inbounds nuw %struct.Nwk_Man_t_, ptr %55, i32 0, i32 4
  %57 = load ptr, ptr %56, align 8, !tbaa !44
  %58 = load i32, ptr %10, align 4, !tbaa !12
  %59 = call ptr @Vec_PtrEntry(ptr noundef %57, i32 noundef %58)
  store ptr %59, ptr %8, align 8, !tbaa !50
  br label %60

60:                                               ; preds = %54, %47
  %61 = phi i1 [ false, %47 ], [ true, %54 ]
  br i1 %61, label %62, label %106

62:                                               ; preds = %60
  %63 = load ptr, ptr %8, align 8, !tbaa !50
  %64 = icmp eq ptr %63, null
  br i1 %64, label %69, label %65

65:                                               ; preds = %62
  %66 = load ptr, ptr %8, align 8, !tbaa !50
  %67 = call i32 @Nwk_ObjIsNode(ptr noundef %66)
  %68 = icmp ne i32 %67, 0
  br i1 %68, label %70, label %69

69:                                               ; preds = %65, %62
  br label %102

70:                                               ; preds = %65
  %71 = load ptr, ptr %8, align 8, !tbaa !50
  %72 = call i32 @Nwk_ObjFaninNum(ptr noundef %71)
  %73 = icmp sgt i32 %72, 15
  br i1 %73, label %74, label %75

74:                                               ; preds = %70
  br label %103

75:                                               ; preds = %70
  %76 = load ptr, ptr %8, align 8, !tbaa !50
  %77 = getelementptr inbounds nuw %struct.Nwk_Obj_t_, ptr %76, i32 0, i32 1
  %78 = load ptr, ptr %77, align 8, !tbaa !52
  %79 = call i32 @Hop_DagSize(ptr noundef %78)
  store i32 %79, ptr %12, align 4, !tbaa !12
  %80 = load ptr, ptr %7, align 8, !tbaa !3
  %81 = load ptr, ptr %3, align 8, !tbaa !36
  %82 = getelementptr inbounds nuw %struct.Nwk_Man_t_, ptr %81, i32 0, i32 7
  %83 = load ptr, ptr %82, align 8, !tbaa !55
  %84 = load ptr, ptr %8, align 8, !tbaa !50
  %85 = getelementptr inbounds nuw %struct.Nwk_Obj_t_, ptr %84, i32 0, i32 1
  %86 = load ptr, ptr %85, align 8, !tbaa !52
  %87 = load ptr, ptr %8, align 8, !tbaa !50
  %88 = call i32 @Nwk_ObjFaninNum(ptr noundef %87)
  %89 = load ptr, ptr %9, align 8, !tbaa !14
  %90 = call ptr @Nwk_NodeIfNodeResyn(ptr noundef %80, ptr noundef %83, ptr noundef %86, i32 noundef %88, ptr noundef %89, ptr noundef null, float noundef -1.000000e+00)
  %91 = load ptr, ptr %8, align 8, !tbaa !50
  %92 = getelementptr inbounds nuw %struct.Nwk_Obj_t_, ptr %91, i32 0, i32 1
  store ptr %90, ptr %92, align 8, !tbaa !52
  %93 = load ptr, ptr %8, align 8, !tbaa !50
  %94 = getelementptr inbounds nuw %struct.Nwk_Obj_t_, ptr %93, i32 0, i32 1
  %95 = load ptr, ptr %94, align 8, !tbaa !52
  %96 = call i32 @Hop_DagSize(ptr noundef %95)
  store i32 %96, ptr %13, align 4, !tbaa !12
  %97 = load i32, ptr %12, align 4, !tbaa !12
  %98 = load i32, ptr %13, align 4, !tbaa !12
  %99 = sub nsw i32 %97, %98
  %100 = load i32, ptr %11, align 4, !tbaa !12
  %101 = add nsw i32 %100, %99
  store i32 %101, ptr %11, align 4, !tbaa !12
  br label %102

102:                                              ; preds = %75, %69
  br label %103

103:                                              ; preds = %102, %74
  %104 = load i32, ptr %10, align 4, !tbaa !12
  %105 = add nsw i32 %104, 1
  store i32 %105, ptr %10, align 4, !tbaa !12
  br label %47, !llvm.loop !56

106:                                              ; preds = %60
  %107 = load ptr, ptr %7, align 8, !tbaa !3
  call void @Bdc_ManFree(ptr noundef %107)
  %108 = load ptr, ptr %9, align 8, !tbaa !14
  call void @Vec_IntFree(ptr noundef %108)
  %109 = load i32, ptr %4, align 4, !tbaa !12
  %110 = icmp ne i32 %109, 0
  br i1 %110, label %111, label %120

111:                                              ; preds = %106
  %112 = load i32, ptr %11, align 4, !tbaa !12
  %113 = call i32 (ptr, ...) @printf(ptr noundef @.str.2, i32 noundef %112)
  call void (i32, ptr, ...) @Abc_Print(i32 noundef 1, ptr noundef @.str.3, ptr noundef @.str.4)
  %114 = call i64 @Abc_Clock()
  %115 = load i64, ptr %14, align 8, !tbaa !40
  %116 = sub nsw i64 %114, %115
  %117 = sitofp i64 %116 to double
  %118 = fmul double 1.000000e+00, %117
  %119 = fdiv double %118, 1.000000e+06
  call void (i32, ptr, ...) @Abc_Print(i32 noundef 1, ptr noundef @.str.5, double noundef %119)
  br label %120

120:                                              ; preds = %111, %106
  store i32 0, ptr %15, align 4
  br label %121

121:                                              ; preds = %120, %28
  call void @llvm.lifetime.end.p0(i64 8, ptr %14) #9
  call void @llvm.lifetime.end.p0(i64 4, ptr %13) #9
  call void @llvm.lifetime.end.p0(i64 4, ptr %12) #9
  call void @llvm.lifetime.end.p0(i64 4, ptr %11) #9
  call void @llvm.lifetime.end.p0(i64 4, ptr %10) #9
  call void @llvm.lifetime.end.p0(i64 8, ptr %9) #9
  call void @llvm.lifetime.end.p0(i64 8, ptr %8) #9
  call void @llvm.lifetime.end.p0(i64 8, ptr %7) #9
  call void @llvm.lifetime.end.p0(i64 8, ptr %6) #9
  call void @llvm.lifetime.end.p0(i64 12, ptr %5) #9
  %122 = load i32, ptr %15, align 4
  switch i32 %122, label %124 [
    i32 0, label %123
    i32 1, label %123
  ]

123:                                              ; preds = %121, %121
  ret void

124:                                              ; preds = %121
  unreachable
}