; Function Attrs: nounwind uwtable
define void @Nwk_ManBidecResyn(ptr noundef %0, i32 noundef %1) local_unnamed_addr #0 {
  %3 = alloca %struct.timespec, align 8
  %4 = alloca %struct.timespec, align 8
  %5 = alloca %struct.Bdc_Par_t_, align 4
  call void @llvm.lifetime.start.p0(i64 12, ptr nonnull %5) #11
  %6 = getelementptr inbounds nuw i8, ptr %5, i64 8
  store i32 0, ptr %6, align 4
  call void @llvm.lifetime.start.p0(i64 16, ptr nonnull %4) #11
  %7 = call i32 @clock_gettime(i32 noundef 1, ptr noundef nonnull %4) #11
  %8 = icmp slt i32 %7, 0
  br i1 %8, label %Abc_Clock.exit, label %9

9:                                                ; preds = %2
  %10 = load i64, ptr %4, align 8, !tbaa !26
  %.neg44 = mul i64 %10, -1000000
  %11 = getelementptr inbounds nuw i8, ptr %4, i64 8
  %12 = load i64, ptr %11, align 8, !tbaa !28
  %.neg = sdiv i64 %12, -1000
  %.neg45 = add i64 %.neg, %.neg44
  br label %Abc_Clock.exit

Abc_Clock.exit:                                   ; preds = %2, %9
  %.0.i.neg = phi i64 [ %.neg45, %9 ], [ 1, %2 ]
  call void @llvm.lifetime.end.p0(i64 16, ptr nonnull %4) #11
  %13 = call i32 @Nwk_ManGetFaninMax(ptr noundef %0) #11
  store i32 %13, ptr %5, align 4, !tbaa !29
  %14 = getelementptr inbounds nuw i8, ptr %5, i64 4
  store i32 %1, ptr %14, align 4, !tbaa !31
  %15 = icmp slt i32 %13, 2
  br i1 %15, label %16, label %17

16:                                               ; preds = %Abc_Clock.exit
  %puts37 = call i32 @puts(ptr nonnull dereferenceable(1) @str.1)
  br label %73

17:                                               ; preds = %Abc_Clock.exit
  %18 = icmp samesign ugt i32 %13, 15
  br i1 %18, label %19, label %22

19:                                               ; preds = %17
  %.not = icmp eq i32 %1, 0
  br i1 %.not, label %21, label %20

20:                                               ; preds = %19
  %puts = call i32 @puts(ptr nonnull dereferenceable(1) @str)
  br label %21

21:                                               ; preds = %20, %19
  store i32 15, ptr %5, align 4, !tbaa !29
  br label %22

22:                                               ; preds = %21, %17
  %calloc.i = call noalias noundef dereferenceable_or_null(16) ptr @calloc(i64 1, i64 16)
  %23 = call ptr @Bdc_ManAlloc(ptr noundef nonnull %5) #11
  %24 = getelementptr inbounds nuw i8, ptr %0, i64 32
  %25 = load ptr, ptr %24, align 8, !tbaa !32
  %26 = getelementptr i8, ptr %25, i64 4
  %.val3848 = load i32, ptr %26, align 4, !tbaa !39
  %27 = icmp sgt i32 %.val3848, 0
  br i1 %27, label %.lr.ph, label %.critedge

.lr.ph:                                           ; preds = %22
  %28 = getelementptr inbounds nuw i8, ptr %0, i64 64
  br label %29

29:                                               ; preds = %.lr.ph, %51
  %30 = phi ptr [ %25, %.lr.ph ], [ %52, %51 ]
  %indvars.iv = phi i64 [ 0, %.lr.ph ], [ %indvars.iv.next, %51 ]
  %.03249 = phi i32 [ 0, %.lr.ph ], [ %.1, %51 ]
  %31 = getelementptr i8, ptr %30, i64 8
  %.val = load ptr, ptr %31, align 8, !tbaa !21
  %32 = getelementptr inbounds nuw ptr, ptr %.val, i64 %indvars.iv
  %33 = load ptr, ptr %32, align 8, !tbaa !23
  %34 = icmp eq ptr %33, null
  br i1 %34, label %51, label %35

35:                                               ; preds = %29
  %36 = getelementptr i8, ptr %33, i64 32
  %.val39 = load i32, ptr %36, align 8
  %37 = and i32 %.val39, 7
  %.not46 = icmp eq i32 %37, 3
  br i1 %.not46, label %38, label %51

38:                                               ; preds = %35
  %39 = getelementptr i8, ptr %33, i64 60
  %.val40 = load i32, ptr %39, align 4, !tbaa !40
  %40 = icmp sgt i32 %.val40, 15
  br i1 %40, label %51, label %41

41:                                               ; preds = %38
  %42 = getelementptr inbounds nuw i8, ptr %33, i64 8
  %43 = load ptr, ptr %42, align 8, !tbaa !45
  %44 = call i32 @Hop_DagSize(ptr noundef %43) #11
  %45 = load ptr, ptr %28, align 8, !tbaa !46
  %46 = load ptr, ptr %42, align 8, !tbaa !45
  %.val41 = load i32, ptr %39, align 4, !tbaa !40
  %47 = call ptr @Nwk_NodeIfNodeResyn(ptr noundef %23, ptr noundef %45, ptr noundef %46, i32 noundef %.val41, ptr noundef %calloc.i, ptr noundef null, float noundef -1.000000e+00)
  store ptr %47, ptr %42, align 8, !tbaa !45
  %48 = call i32 @Hop_DagSize(ptr noundef %47) #11
  %49 = add i32 %44, %.03249
  %50 = sub i32 %49, %48
  %.pre = load ptr, ptr %24, align 8, !tbaa !32
  br label %51

51:                                               ; preds = %41, %35, %29, %38
  %52 = phi ptr [ %30, %29 ], [ %30, %38 ], [ %.pre, %41 ], [ %30, %35 ]
  %.1 = phi i32 [ %.03249, %29 ], [ %.03249, %38 ], [ %50, %41 ], [ %.03249, %35 ]
  %indvars.iv.next = add nuw nsw i64 %indvars.iv, 1
  %53 = getelementptr i8, ptr %52, i64 4
  %.val38 = load i32, ptr %53, align 4, !tbaa !39
  %54 = sext i32 %.val38 to i64
  %55 = icmp slt i64 %indvars.iv.next, %54
  br i1 %55, label %29, label %.critedge, !llvm.loop !47

.critedge:                                        ; preds = %51, %22
  %.032.lcssa = phi i32 [ 0, %22 ], [ %.1, %51 ]
  call void @Bdc_ManFree(ptr noundef %23) #11
  %56 = getelementptr inbounds nuw i8, ptr %calloc.i, i64 8
  %57 = load ptr, ptr %56, align 8, !tbaa !48
  %.not.i = icmp eq ptr %57, null
  br i1 %.not.i, label %Vec_IntFree.exit, label %58

58:                                               ; preds = %.critedge
  call void @free(ptr noundef nonnull %57) #11
  br label %Vec_IntFree.exit

Vec_IntFree.exit:                                 ; preds = %.critedge, %58
  call void @free(ptr noundef nonnull %calloc.i) #11
  %.not35 = icmp eq i32 %1, 0
  br i1 %.not35, label %73, label %59

59:                                               ; preds = %Vec_IntFree.exit
  %60 = call i32 (ptr, ...) @printf(ptr noundef nonnull dereferenceable(1) @.str.2, i32 noundef %.032.lcssa)
  call void (i32, ptr, ...) @Abc_Print(i32 poison, ptr noundef nonnull @.str.3, ptr noundef nonnull @.str.4)
  call void @llvm.lifetime.start.p0(i64 16, ptr nonnull %3) #11
  %61 = call i32 @clock_gettime(i32 noundef 1, ptr noundef nonnull %3) #11
  %62 = icmp slt i32 %61, 0
  br i1 %62, label %Abc_Clock.exit43, label %63

63:                                               ; preds = %59
  %64 = load i64, ptr %3, align 8, !tbaa !26
  %65 = mul nsw i64 %64, 1000000
  %66 = getelementptr inbounds nuw i8, ptr %3, i64 8
  %67 = load i64, ptr %66, align 8, !tbaa !28
  %68 = sdiv i64 %67, 1000
  %69 = add nsw i64 %68, %65
  br label %Abc_Clock.exit43

Abc_Clock.exit43:                                 ; preds = %59, %63
  %.0.i42 = phi i64 [ %69, %63 ], [ -1, %59 ]
  call void @llvm.lifetime.end.p0(i64 16, ptr nonnull %3) #11
  %70 = add i64 %.0.i42, %.0.i.neg
  %71 = sitofp i64 %70 to double
  %72 = fdiv double %71, 1.000000e+06
  call void (i32, ptr, ...) @Abc_Print(i32 poison, ptr noundef nonnull @.str.5, double noundef %72)
  br label %73

73:                                               ; preds = %Vec_IntFree.exit, %Abc_Clock.exit43, %16
  call void @llvm.lifetime.end.p0(i64 12, ptr nonnull %5) #11
  ret void
}